; Function Attrs: null_pointer_is_valid sspstrong uwtable
define internal noalias noundef ptr @dissect_fields_sut(ptr noundef %0, ptr noundef %1, ptr noundef %2, i32 noundef %3, i32 noundef %4, ptr readnone captures(none) %5) #0 {
  %7 = icmp slt i32 %4, 2
  br i1 %7, label %8, label %10

8:                                                ; preds = %6
  %9 = tail call ptr @proto_tree_add_expert(ptr noundef %2, ptr noundef %0, ptr noundef nonnull @ei_alcap_parameter_field_bad_length, ptr noundef %1, i32 noundef %3, i32 noundef %4)
  br label %17

10:                                               ; preds = %6
  %11 = tail call zeroext i8 @tvb_get_uint8(ptr noundef %1, i32 noundef %3)
  %12 = zext i8 %11 to i32
  %13 = load i32, ptr @hf_alcap_sut_len, align 4
  %14 = tail call ptr @proto_tree_add_item(ptr noundef %2, i32 noundef %13, ptr noundef %1, i32 noundef %3, i32 noundef 1, i32 noundef 0)
  %15 = load i32, ptr @hf_alcap_sut, align 4
  %16 = tail call ptr @proto_tree_add_item(ptr noundef %2, i32 noundef %15, ptr noundef %1, i32 noundef %3, i32 noundef %12, i32 noundef 0)
  br label %17

17:                                               ; preds = %10, %8
  ret ptr null
}